; ModuleID = '7/10.c'
source_filename = "7/10.c"
target datalayout = "e-m:e-p270:32:32-p271:32:32-p272:64:64-i64:64-f80:128-n8:16:32:64-S128"
target triple = "x86_64-pc-linux-gnu"

@.str = private unnamed_addr constant [3 x i8] c"%s\00", align 1
@.str.1 = private unnamed_addr constant [4 x i8] c"%s\0A\00", align 1

; Function Attrs: noinline nounwind uwtable
define dso_local void @main() #0 {
  %1 = alloca [3 x [300 x i8]], align 16
  %2 = alloca i32, align 4
  %3 = alloca i32, align 4
  %4 = alloca i32, align 4
  %5 = alloca i32, align 4
  %6 = alloca i32, align 4
  %7 = alloca i32, align 4
  store i32 0, i32* %4, align 4
  store i32 0, i32* %5, align 4
  store i32 0, i32* %6, align 4
  %8 = getelementptr inbounds [3 x [300 x i8]], [3 x [300 x i8]]* %1, i64 0, i64 0
  %9 = getelementptr inbounds [300 x i8], [300 x i8]* %8, i64 0, i64 0
  %10 = call i32 (i8*, ...) @__isoc99_scanf(i8* getelementptr inbounds ([3 x i8], [3 x i8]* @.str, i64 0, i64 0), i8* %9)
  %11 = getelementptr inbounds [3 x [300 x i8]], [3 x [300 x i8]]* %1, i64 0, i64 1
  %12 = getelementptr inbounds [300 x i8], [300 x i8]* %11, i64 0, i64 0
  %13 = call i32 (i8*, ...) @__isoc99_scanf(i8* getelementptr inbounds ([3 x i8], [3 x i8]* @.str, i64 0, i64 0), i8* %12)
  %14 = getelementptr inbounds [3 x [300 x i8]], [3 x [300 x i8]]* %1, i64 0, i64 2
  %15 = getelementptr inbounds [300 x i8], [300 x i8]* %14, i64 0, i64 0
  %16 = call i32 (i8*, ...) @__isoc99_scanf(i8* getelementptr inbounds ([3 x i8], [3 x i8]* @.str, i64 0, i64 0), i8* %15)
  %17 = getelementptr inbounds [3 x [300 x i8]], [3 x [300 x i8]]* %1, i64 0, i64 0
  %18 = getelementptr inbounds [300 x i8], [300 x i8]* %17, i64 0, i64 0
  %19 = call i64 @strlen(i8* %18) #3
  %20 = trunc i64 %19 to i32
  store i32 %20, i32* %2, align 4
  %21 = getelementptr inbounds [3 x [300 x i8]], [3 x [300 x i8]]* %1, i64 0, i64 1
  %22 = getelementptr inbounds [300 x i8], [300 x i8]* %21, i64 0, i64 0
  %23 = call i64 @strlen(i8* %22) #3
  %24 = trunc i64 %23 to i32
  store i32 %24, i32* %3, align 4
  br label %25

25:                                               ; preds = %72, %0
  %26 = load i32, i32* %4, align 4
  %27 = load i32, i32* %2, align 4
  %28 = icmp slt i32 %26, %27
  br i1 %28, label %29, label %73

29:                                               ; preds = %25
  %30 = load i32, i32* %6, align 4
  %31 = load i32, i32* %3, align 4
  %32 = icmp eq i32 %30, %31
  br i1 %32, label %33, label %34

33:                                               ; preds = %29
  br label %73

34:                                               ; preds = %29
  %35 = getelementptr inbounds [3 x [300 x i8]], [3 x [300 x i8]]* %1, i64 0, i64 0
  %36 = load i32, i32* %4, align 4
  %37 = sext i32 %36 to i64
  %38 = getelementptr inbounds [300 x i8], [300 x i8]* %35, i64 0, i64 %37
  %39 = load i8, i8* %38, align 1
  %40 = sext i8 %39 to i32
  %41 = getelementptr inbounds [3 x [300 x i8]], [3 x [300 x i8]]* %1, i64 0, i64 1
  %42 = load i32, i32* %5, align 4
  %43 = sext i32 %42 to i64
  %44 = getelementptr inbounds [300 x i8], [300 x i8]* %41, i64 0, i64 %43
  %45 = load i8, i8* %44, align 1
  %46 = sext i8 %45 to i32
  %47 = icmp eq i32 %40, %46
  br i1 %47, label %48, label %55

48:                                               ; preds = %34
  %49 = load i32, i32* %6, align 4
  %50 = add nsw i32 %49, 1
  store i32 %50, i32* %6, align 4
  %51 = load i32, i32* %5, align 4
  %52 = add nsw i32 %51, 1
  store i32 %52, i32* %5, align 4
  %53 = load i32, i32* %4, align 4
  %54 = add nsw i32 %53, 1
  store i32 %54, i32* %4, align 4
  br label %72

55:                                               ; preds = %34
  %56 = load i32, i32* %5, align 4
  %57 = load i32, i32* %3, align 4
  %58 = sub nsw i32 %57, 1
  %59 = icmp slt i32 %56, %58
  br i1 %59, label %60, label %63

60:                                               ; preds = %55
  store i32 0, i32* %6, align 4
  %61 = load i32, i32* %5, align 4
  %62 = add nsw i32 %61, 1
  store i32 %62, i32* %5, align 4
  br label %63

63:                                               ; preds = %60, %55
  %64 = load i32, i32* %5, align 4
  %65 = load i32, i32* %3, align 4
  %66 = sub nsw i32 %65, 1
  %67 = icmp eq i32 %64, %66
  br i1 %67, label %68, label %71

68:                                               ; preds = %63
  store i32 0, i32* %6, align 4
  store i32 0, i32* %5, align 4
  %69 = load i32, i32* %4, align 4
  %70 = add nsw i32 %69, 1
  store i32 %70, i32* %4, align 4
  br label %71

71:                                               ; preds = %68, %63
  br label %72

72:                                               ; preds = %71, %48
  br label %25

73:                                               ; preds = %33, %25
  %74 = load i32, i32* %6, align 4
  %75 = load i32, i32* %3, align 4
  %76 = icmp eq i32 %74, %75
  br i1 %76, label %77, label %103

77:                                               ; preds = %73
  %78 = load i32, i32* %4, align 4
  %79 = load i32, i32* %3, align 4
  %80 = sub nsw i32 %78, %79
  store i32 %80, i32* %7, align 4
  br label %81

81:                                               ; preds = %99, %77
  %82 = load i32, i32* %7, align 4
  %83 = load i32, i32* %4, align 4
  %84 = icmp slt i32 %82, %83
  br i1 %84, label %85, label %102

85:                                               ; preds = %81
  %86 = getelementptr inbounds [3 x [300 x i8]], [3 x [300 x i8]]* %1, i64 0, i64 2
  %87 = load i32, i32* %7, align 4
  %88 = load i32, i32* %3, align 4
  %89 = add nsw i32 %87, %88
  %90 = load i32, i32* %4, align 4
  %91 = sub nsw i32 %89, %90
  %92 = sext i32 %91 to i64
  %93 = getelementptr inbounds [300 x i8], [300 x i8]* %86, i64 0, i64 %92
  %94 = load i8, i8* %93, align 1
  %95 = getelementptr inbounds [3 x [300 x i8]], [3 x [300 x i8]]* %1, i64 0, i64 0
  %96 = load i32, i32* %7, align 4
  %97 = sext i32 %96 to i64
  %98 = getelementptr inbounds [300 x i8], [300 x i8]* %95, i64 0, i64 %97
  store i8 %94, i8* %98, align 1
  br label %99

99:                                               ; preds = %85
  %100 = load i32, i32* %7, align 4
  %101 = add nsw i32 %100, 1
  store i32 %101, i32* %7, align 4
  br label %81

102:                                              ; preds = %81
  br label %103

103:                                              ; preds = %102, %73
  %104 = getelementptr inbounds [3 x [300 x i8]], [3 x [300 x i8]]* %1, i64 0, i64 0
  %105 = getelementptr inbounds [300 x i8], [300 x i8]* %104, i64 0, i64 0
  %106 = call i32 (i8*, ...) @printf(i8* getelementptr inbounds ([4 x i8], [4 x i8]* @.str.1, i64 0, i64 0), i8* %105)
  ret void
}

declare dso_local i32 @__isoc99_scanf(i8*, ...) #1

; Function Attrs: nounwind readonly
declare dso_local i64 @strlen(i8*) #2

declare dso_local i32 @printf(i8*, ...) #1


!llvm.module.flags = !{!0}
!llvm.ident = !{!1}

!0 = !{i32 1, !"wchar_size", i32 4}
!1 = !{!"clang version 10.0.0-4ubuntu1 "}
